; Function Attrs: mustprogress nounwind willreturn uwtable
define internal void @poly_free(ptr noundef readonly captures(none) %0) #20 {
  %2 = getelementptr inbounds nuw i8, ptr %0, i64 16
  %3 = load ptr, ptr %2, align 8, !tbaa !21
  %4 = getelementptr inbounds nuw i8, ptr %3, i64 24
  %5 = load ptr, ptr %4, align 8, !tbaa !100
  %.not = icmp eq ptr %5, null
  br i1 %.not, label %9, label %6

6:                                                ; preds = %1
  %7 = getelementptr inbounds nuw i8, ptr %5, i64 56
  %8 = load ptr, ptr %7, align 8, !tbaa !83
  tail call void @free(ptr noundef %8) #26
  tail call void @free(ptr noundef nonnull %5) #26
  br label %9

9:                                                ; preds = %6, %1
  ret void
}